; Function Attrs: mustprogress nounwind uwtable
define void @_ZN8proxygen10QPACKCodec15decodeStreamingEmSt10unique_ptrIN5folly5IOBufESt14default_deleteIS3_EEjPNS_5HPACK17StreamingCallbackE(ptr noundef nonnull align 8 dereferenceable(1024) %this, i64 noundef %streamID, ptr nocapture noundef %block, i32 noundef %length, ptr noundef %streamingCb) local_unnamed_addr #4 align 2 personality ptr @__gxx_personality_v0 {
entry:
  %agg.tmp = alloca %"class.std::unique_ptr", align 8
  %tobool.not = icmp eq ptr %streamingCb, null
  br i1 %tobool.not, label %if.end, label %if.then

if.then:                                          ; preds = %entry
  %stats_ = getelementptr inbounds i8, ptr %this, i64 32
  %0 = load ptr, ptr %stats_, align 8
  %stats = getelementptr inbounds i8, ptr %streamingCb, i64 8
  store ptr %0, ptr %stats, align 8
  br label %if.end

if.end:                                           ; preds = %if.then, %entry
  %decoder_ = getelementptr inbounds i8, ptr %this, i64 664
  %1 = load i64, ptr %block, align 8
  store i64 %1, ptr %agg.tmp, align 8
  store ptr null, ptr %block, align 8
  invoke void @_ZN8proxygen12QPACKDecoder15decodeStreamingEmSt10unique_ptrIN5folly5IOBufESt14default_deleteIS3_EEjPNS_5HPACK17StreamingCallbackE(ptr noundef nonnull align 8 dereferenceable(336) %decoder_, i64 noundef %streamID, ptr noundef nonnull %agg.tmp, i32 noundef %length, ptr noundef %streamingCb)
          to label %invoke.cont unwind label %terminate.lpad

invoke.cont:                                      ; preds = %if.end
  %2 = load ptr, ptr %agg.tmp, align 8
  %cmp.not.i = icmp eq ptr %2, null
  br i1 %cmp.not.i, label %_ZNSt10unique_ptrIN5folly5IOBufESt14default_deleteIS1_EED2Ev.exit, label %_ZNKSt14default_deleteIN5folly5IOBufEEclEPS1_.exit.i

_ZNKSt14default_deleteIN5folly5IOBufEEclEPS1_.exit.i: ; preds = %invoke.cont
  call void @_ZN5folly5IOBufD1Ev(ptr noundef nonnull align 8 dereferenceable(56) %2) #24
  call void @_ZN5folly5IOBufdlEPv(ptr noundef nonnull %2) #24
  br label %_ZNSt10unique_ptrIN5folly5IOBufESt14default_deleteIS1_EED2Ev.exit

_ZNSt10unique_ptrIN5folly5IOBufESt14default_deleteIS1_EED2Ev.exit: ; preds = %invoke.cont, %_ZNKSt14default_deleteIN5folly5IOBufEEclEPS1_.exit.i
  ret void

terminate.lpad:                                   ; preds = %if.end
  %3 = landingpad { ptr, i32 }
          catch ptr null
  %4 = extractvalue { ptr, i32 } %3, 0
  call void @__clang_call_terminate(ptr %4) #25
  unreachable
}